; Function Attrs: nounwind uwtable
define internal i32 @fold_kfold_fpmath(ptr noundef %0) #0 {
  %2 = getelementptr inbounds nuw i8, ptr %0, i64 200
  %3 = load double, ptr %2, align 8, !tbaa !28
  %4 = getelementptr inbounds nuw i8, ptr %0, i64 186
  %5 = load i16, ptr %4, align 2, !tbaa !28
  %6 = zext i16 %5 to i32
  %7 = tail call double @lj_vm_foldfpm(double noundef %3, i32 noundef %6) #12
  %8 = bitcast double %7 to i64
  %9 = tail call i32 @lj_ir_knum_u64(ptr noundef %0, i64 noundef %8) #12
  ret i32 %9
}